; ModuleID = 'bench/libcxx/original/abort_message.ll'
source_filename = "bench/libcxx/original/abort_message.ll"
target datalayout = "e-m:e-p270:32:32-p271:32:32-p272:64:64-i64:64-i128:128-f80:128-n8:16:32:64-S128"
target triple = "x86_64-pc-linux-gnu"

%struct.__va_list_tag = type { i32, i32, ptr, ptr }

@stderr = external local_unnamed_addr global ptr, align 8
@.str = private unnamed_addr constant [12 x i8] c"libc++abi: \00", align 1

; Function Attrs: cold mustprogress nofree noreturn nounwind uwtable
define hidden void @__abort_message(ptr noundef readonly captures(none) %0, ...) local_unnamed_addr #0 {
  %2 = alloca [1 x %struct.__va_list_tag], align 16
  %3 = load ptr, ptr @stderr, align 8, !tbaa !4
  %4 = tail call i64 @fwrite(ptr nonnull @.str, i64 11, i64 1, ptr %3) #6
  call void @llvm.lifetime.start.p0(i64 24, ptr nonnull %2) #7
  call void @llvm.va_start.p0(ptr nonnull %2)
  %5 = load ptr, ptr @stderr, align 8, !tbaa !4
  %6 = call i32 @vfprintf(ptr noundef %5, ptr noundef %0, ptr noundef nonnull %2) #8
  call void @llvm.va_end.p0(ptr nonnull %2)
  %7 = load ptr, ptr @stderr, align 8, !tbaa !4
  %fputc = call i32 @fputc(i32 10, ptr %7)
  call void @llvm.lifetime.end.p0(i64 24, ptr nonnull %2) #7
  call void @abort() #9
  unreachable
}

; Function Attrs: mustprogress nocallback nofree nosync nounwind willreturn memory(argmem: readwrite)
declare void @llvm.lifetime.start.p0(i64 immarg, ptr captures(none)) #1

; Function Attrs: mustprogress nocallback nofree nosync nounwind willreturn
declare void @llvm.va_start.p0(ptr) #2

; Function Attrs: nofree nounwind
declare noundef i32 @vfprintf(ptr noundef captures(none), ptr noundef readonly captures(none), ptr noundef) local_unnamed_addr #3

; Function Attrs: mustprogress nocallback nofree nosync nounwind willreturn
declare void @llvm.va_end.p0(ptr) #2

; Function Attrs: mustprogress nocallback nofree nosync nounwind willreturn memory(argmem: readwrite)
declare void @llvm.lifetime.end.p0(i64 immarg, ptr captures(none)) #1

; Function Attrs: cold nofree noreturn nounwind
declare void @abort() local_unnamed_addr #4

; Function Attrs: nofree nounwind
declare noundef i64 @fwrite(ptr noundef readonly captures(none), i64 noundef, i64 noundef, ptr noundef captures(none)) local_unnamed_addr #5

; Function Attrs: nofree nounwind
declare noundef i32 @fputc(i32 noundef, ptr noundef captures(none)) local_unnamed_addr #5


!llvm.linker.options = !{}
!llvm.module.flags = !{!0, !1, !2, !3}

!0 = !{i32 1, !"wchar_size", i32 4}
!1 = !{i32 8, !"PIC Level", i32 2}
!2 = !{i32 7, !"PIE Level", i32 2}
!3 = !{i32 7, !"uwtable", i32 2}
!4 = !{!5, !5, i64 0}
!5 = !{!"p1 _ZTS8_IO_FILE", !6, i64 0}
!6 = !{!"any pointer", !7, i64 0}
!7 = !{!"omnipotent char", !8, i64 0}
!8 = !{!"Simple C++ TBAA"}
